; Function Attrs: nounwind uwtable
define hidden noundef zeroext i1 @mi_manage_os_memory_ex(ptr noundef %0, i64 noundef %1, i1 noundef zeroext %2, i1 noundef zeroext %3, i1 noundef zeroext %4, i32 noundef %5, i1 noundef zeroext %6, ptr noundef captures(address_is_null) %7) local_unnamed_addr #0 {
  %9 = alloca %struct.mi_memid_s, align 8
  %10 = zext i1 %2 to i8
  %11 = zext i1 %3 to i8
  %12 = zext i1 %4 to i8
  call void @llvm.lifetime.start.p0(i64 24, ptr nonnull %9) #21
  call void @llvm.memset.p0.i64(ptr noundef nonnull align 8 dereferenceable(24) %9, i8 0, i64 24, i1 false), !alias.scope !72
  %13 = getelementptr inbounds nuw i8, ptr %9, i64 20
  store i32 1, ptr %13, align 4, !tbaa !46, !alias.scope !72
  %14 = getelementptr inbounds nuw i8, ptr %9, i64 17
  store i8 %10, ptr %14, align 1, !tbaa !75
  %15 = getelementptr inbounds nuw i8, ptr %9, i64 18
  store i8 %12, ptr %15, align 2, !tbaa !48
  %16 = getelementptr inbounds nuw i8, ptr %9, i64 16
  store i8 %11, ptr %16, align 8, !tbaa !76
  %17 = tail call fastcc zeroext i1 @mi_manage_os_memory_ex2(ptr noundef %0, i64 noundef %1, i1 noundef zeroext %3, i32 noundef %5, i1 noundef zeroext %6, ptr noundef nonnull byval(%struct.mi_memid_s) align 8 %9, ptr noundef %7) #19
  call void @llvm.lifetime.end.p0(i64 24, ptr nonnull %9) #21
  ret i1 %17
}